Certificate:
    Data:
        Version: 3 (0x2)
        Serial Number:
            ab:49:74:1f:76:54:ad:17
    Signature Algorithm: md5WithRSAEncryption
        Issuer: C=AU, O=Dodgy Brothers, CN=Dodgy CA
        Validity
            Not Before: Jul 27 23:47:14 2018 GMT
            Not After : Jul 26 23:47:14 2021 GMT
        Subject: C=AU, O=Dodgy Brothers, CN=Dodgy CA
        Subject Public Key Info:
            Public Key Algorithm: rsaEncryption
                Public-Key: (2048 bit)
                Modulus:
                    00:ae:21:07:98:67:fc:5d:36:ec:be:d1:13:ed:f3:
                    e1:1b:2a:eb:e9:1f:e1:48:20:3c:be:67:38:04:e0:
                    b9:fa:14:fe:aa:09:84:6e:31:33:7e:1b:b7:7b:28:
                    6d:d3:03:ad:56:a0:a1:d7:0a:d0:44:1c:5c:41:7a:
                    6e:c0:41:9b:f0:a0:fb:a6:30:23:3b:ea:01:da:e0:
                    9d:fc:f7:79:b9:71:47:30:70:89:fd:d4:b3:ae:65:
                    e6:c6:64:c7:f3:38:22:18:30:a3:2e:81:4c:0a:d8:
                    3a:ca:a5:34:73:30:e8:0d:3c:fd:cc:cf:5a:33:3f:
                    92:b0:93:20:98:6b:2b:fd:33:55:dd:cf:f5:64:10:
                    23:98:a0:fb:b2:87:39:8b:78:10:7c:6a:4e:0f:8a:
                    42:28:31:f1:52:ff:b7:a8:75:e9:6c:37:dc:c5:31:
                    2d:c3:30:88:cc:ab:ee:d7:a7:45:16:da:f7:06:48:
                    84:1b:d1:d5:3b:d7:59:56:20:c2:1d:c5:37:09:8e:
                    06:55:b6:5f:11:04:d4:4c:fb:d2:fd:89:bb:6f:08:
                    37:8d:a3:97:1a:cb:7d:c2:e0:40:df:9a:1a:a1:14:
                    52:d5:42:dd:8f:09:95:ea:17:72:62:f0:dd:b2:48:
                    d1:33:c5:72:27:89:28:6d:9d:e1:88:07:14:fb:50:
                    35:b3
                Exponent: 65537 (0x10001)
        X509v3 extensions:
            X509v3 Subject Key Identifier: 
                27:C6:51:05:4A:F3:F4:EE:78:45:9F:CC:F7:44:87:B4:F3:B9:F0:CF
            X509v3 Authority Key Identifier: 
                keyid:27:C6:51:05:4A:F3:F4:EE:78:45:9F:CC:F7:44:87:B4:F3:B9:F0:CF
                DirName:/C=AU/O=Dodgy Brothers/CN=Dodgy CA
                serial:AB:49:74:1F:76:54:AD:17

            X509v3 Basic Constraints: 
                CA:TRUE, pathlen:1
            X509v3 Key Usage: 
                Certificate Sign, CRL Sign
            X509v3 Issuer Alternative Name: 
                <EMPTY>

    Signature Algorithm: md5WithRSAEncryption
         48:a8:6d:8c:ea:32:5a:d8:06:51:ec:eb:2e:4f:ff:f3:9d:2f:
         7a:c8:da:31:b6:b2:88:a3:7f:8b:d4:72:bb:f9:48:e8:43:36:
         20:64:3b:1b:ed:cd:44:cd:99:ce:37:0d:17:d8:68:3a:72:91:
         73:20:e2:10:d5:c6:31:70:9d:aa:ba:c3:da:22:62:e7:ad:5e:
         7f:c9:98:47:9b:02:be:2b:1a:ef:f6:b8:6e:1a:22:e2:32:0f:
         ae:8a:63:44:ea:10:85:49:96:19:e5:9b:94:6f:a5:6c:9d:6d:
         dc:78:fe:88:62:cc:22:9c:ac:e3:26:9c:cc:6e:36:45:cb:d0:
         c1:e6:27:ec:e2:82:aa:20:dd:f2:e6:8d:b7:06:9e:e0:2d:62:
         c6:a2:70:3c:07:a9:9f:0f:29:72:35:af:57:84:8e:bd:f3:e8:
         f6:f5:d7:02:3d:f8:8b:18:aa:86:4f:c7:42:c4:37:ca:bd:b8:
         0e:f8:76:6f:d1:97:80:b0:fe:f3:d1:7e:01:3d:d5:02:84:e3:
         5b:da:8c:73:b9:63:b7:08:20:91:aa:d9:6d:d8:a1:13:55:29:
         65:2c:1c:4f:1b:a0:9c:65:00:cd:4e:ee:50:93:7c:23:6b:2c:
         d3:3d:f8:ec:57:72:9f:61:e6:fc:1b:d8:69:ba:7d:c7:86:c0:
         91:25:f0:f3
-----BEGIN CERTIFICATE-----
MIIDrDCCApSgAwIBAgIJAKtJdB92VK0XMA0GCSqGSIb3DQEBBAUAMDkxCzAJBgNV
BAYTAkFVMRcwFQYDVQQKDA5Eb2RneSBCcm90aGVyczERMA8GA1UEAwwIRG9kZ3kg
Q0EwHhcNMTgwNzI3MjM0NzE0WhcNMjEwNzI2MjM0NzE0WjA5MQswCQYDVQQGEwJB
VTEXMBUGA1UECgwORG9kZ3kgQnJvdGhlcnMxETAPBgNVBAMMCERvZGd5IENBMIIB
IjANBgkqhkiG9w0BAQEFAAOCAQ8AMIIBCgKCAQEAriEHmGf8XTbsvtET7fPhGyrr
6R/hSCA8vmc4BOC5+hT+qgmEbjEzfhu3eyht0wOtVqCh1wrQRBxcQXpuwEGb8KD7
pjAjO+oB2uCd/Pd5uXFHMHCJ/dSzrmXmxmTH8zgiGDCjLoFMCtg6yqU0czDoDTz9
zM9aMz+SsJMgmGsr/TNV3c/1ZBAjmKD7soc5i3gQfGpOD4pCKDHxUv+3qHXpbDfc
xTEtwzCIzKvu16dFFtr3BkiEG9HVO9dZViDCHcU3CY4GVbZfEQTUTPvS/Ym7bwg3
jaOXGst9wuBA35oaoRRS1ULdjwmV6hdyYvDdskjRM8VyJ4kobZ3hiAcU+1A1swID
AQABo4G2MIGzMB0GA1UdDgQWBBQnxlEFSvP07nhFn8z3RIe087nwzzBpBgNVHSME
YjBggBQnxlEFSvP07nhFn8z3RIe087nwz6E9pDswOTELMAkGA1UEBhMCQVUxFzAV
BgNVBAoMDkRvZGd5IEJyb3RoZXJzMREwDwYDVQQDDAhEb2RneSBDQYIJAKtJdB92
VK0XMA8GA1UdEwQIMAYBAf8CAQEwCwYDVR0PBAQDAgEGMAkGA1UdEgQCMAAwDQYJ
KoZIhvcNAQEEBQADggEBAEiobYzqMlrYBlHs6y5P//OdL3rI2jG2soijf4vUcrv5
SOhDNiBkOxvtzUTNmc43DRfYaDpykXMg4hDVxjFwnaq6w9oiYuetXn/JmEebAr4r
Gu/2uG4aIuIyD66KY0TqEIVJlhnlm5RvpWydbdx4/ohizCKcrOMmnMxuNkXL0MHm
J+zigqog3fLmjbcGnuAtYsaicDwHqZ8PKXI1r1eEjr3z6Pb11wI9+IsYqoZPx0LE
N8q9uA74dm/Rl4Cw/vPRfgE91QKE41vajHO5Y7cIIJGq2W3YoRNVKWUsHE8boJxl
AM1O7lCTfCNrLNM9+OxXcp9h5vwb2Gm6fceGwJEl8PM=
-----END CERTIFICATE-----
